target datalayout = "e-m:e-p270:32:32-p271:32:32-p272:64:64-i64:64-i128:128-f80:128-n8:16:32:64-S128"
target triple = "x86_64-pc-linux-gnu"

%"struct.clang::interp::Descriptor" = type { %"class.llvm::PointerUnion", i32, i32, i32, i32, ptr, ptr, %"class.std::optional.2", i8, i8, i8, i8, i8, ptr, ptr, ptr }
%"class.llvm::PointerUnion" = type { %"class.llvm::pointer_union_detail::PointerUnionMembers" }
%"class.llvm::pointer_union_detail::PointerUnionMembers" = type { %"class.llvm::pointer_union_detail::PointerUnionMembers.0" }
%"class.llvm::pointer_union_detail::PointerUnionMembers.0" = type { %"class.llvm::pointer_union_detail::PointerUnionMembers.1" }
%"class.llvm::pointer_union_detail::PointerUnionMembers.1" = type { %"class.llvm::PointerIntPair" }
%"class.llvm::PointerIntPair" = type { %"struct.llvm::detail::PunnedPointer" }
%"struct.llvm::detail::PunnedPointer" = type { [8 x i8] }
%"class.std::optional.2" = type { %"struct.std::_Optional_base.3" }
%"struct.std::_Optional_base.3" = type { %"struct.std::_Optional_payload.5" }
%"struct.std::_Optional_payload.5" = type { %"struct.std::_Optional_payload_base.base.7", [3 x i8] }
%"struct.std::_Optional_payload_base.base.7" = type <{ %"union.std::_Optional_payload_base<clang::interp::PrimType>::_Storage", i8 }>
%"union.std::_Optional_payload_base<clang::interp::PrimType>::_Storage" = type { i32 }
%"class.clang::interp::MemberPointer" = type <{ %"class.clang::interp::Pointer", ptr, i32, [4 x i8] }>
%"class.clang::interp::Pointer" = type <{ i64, ptr, ptr, %union.anon.45, i32, [4 x i8] }>
%union.anon.45 = type { %"struct.clang::interp::BlockPointer", [8 x i8] }
%"struct.clang::interp::BlockPointer" = type { ptr, i32 }
%"struct.std::_Optional_base.47" = type { %"struct.std::_Optional_payload.49" }
%"struct.std::_Optional_payload.49" = type { %"struct.std::_Optional_payload.base.53", [7 x i8] }
%"struct.std::_Optional_payload.base.53" = type { %"struct.std::_Optional_payload_base.base.52" }
%"struct.std::_Optional_payload_base.base.52" = type <{ %"union.std::_Optional_payload_base<std::pair<bool, std::shared_ptr<clang::interp::InitMap>>>::_Storage", i8 }>
%"union.std::_Optional_payload_base<std::pair<bool, std::shared_ptr<clang::interp::InitMap>>>::_Storage" = type { %"struct.std::pair" }
%"struct.std::pair" = type { i8, %"class.std::shared_ptr" }
%"class.std::shared_ptr" = type { %"class.std::__shared_ptr" }
%"class.std::__shared_ptr" = type { ptr, %"class.std::__shared_count" }
%"class.std::__shared_count" = type { ptr }
%"struct.std::_Optional_payload_base.51" = type <{ %"union.std::_Optional_payload_base<std::pair<bool, std::shared_ptr<clang::interp::InitMap>>>::_Storage", i8, [7 x i8] }>
%"class.std::_Sp_counted_base" = type { ptr, i32, i32 }

@__libc_single_threaded = external global i8, align 1

; Function Attrs: mustprogress nounwind uwtable
define linkonce_odr hidden void @_ZNSt16_Sp_counted_baseILN9__gnu_cxx12_Lock_policyE2EE19_M_release_last_useEv(ptr noundef nonnull align 8 dereferenceable(16) %0) #0 comdat align 2 {
  %2 = alloca ptr, align 8
  %3 = alloca i32, align 4
  %4 = alloca i32, align 4
  %5 = alloca i32, align 4
  %6 = alloca ptr, align 8
  %7 = alloca i32, align 4
  %8 = alloca i32, align 4
  %9 = alloca i32, align 4
  %10 = alloca ptr, align 8
  %11 = alloca i32, align 4
  %12 = alloca ptr, align 8
  store ptr %0, ptr %12, align 8
  %13 = load ptr, ptr %12, align 8
  %14 = load ptr, ptr %13, align 8
  %15 = getelementptr inbounds ptr, ptr %14, i64 2
  %16 = load ptr, ptr %15, align 8
  call void %16(ptr noundef nonnull align 8 dereferenceable(16) %13) #11
  %17 = getelementptr inbounds nuw %"class.std::_Sp_counted_base", ptr %13, i32 0, i32 2
  store ptr %17, ptr %10, align 8
  store i32 -1, ptr %11, align 4
  %18 = load i8, ptr @__libc_single_threaded, align 1
  %19 = icmp ne i8 %18, 0
  br i1 %19, label %20, label %30

20:                                               ; preds = %1
  %21 = load ptr, ptr %10, align 8
  %22 = load i32, ptr %11, align 4
  store ptr %21, ptr %6, align 8
  store i32 %22, ptr %7, align 4
  %23 = load ptr, ptr %6, align 8
  %24 = load i32, ptr %23, align 4
  store i32 %24, ptr %8, align 4
  %25 = load i32, ptr %7, align 4
  %26 = load ptr, ptr %6, align 8
  %27 = load i32, ptr %26, align 4
  %28 = add nsw i32 %27, %25
  store i32 %28, ptr %26, align 4
  %29 = load i32, ptr %8, align 4
  store i32 %29, ptr %9, align 4
  br label %38

30:                                               ; preds = %1
  %31 = load ptr, ptr %10, align 8
  %32 = load i32, ptr %11, align 4
  store ptr %31, ptr %2, align 8
  store i32 %32, ptr %3, align 4
  %33 = load ptr, ptr %2, align 8
  %34 = load i32, ptr %3, align 4
  store i32 %34, ptr %4, align 4
  %35 = load i32, ptr %4, align 4
  %36 = atomicrmw volatile add ptr %33, i32 %35 acq_rel, align 4
  store i32 %36, ptr %5, align 4
  %37 = load i32, ptr %5, align 4
  store i32 %37, ptr %9, align 4
  br label %38

38:                                               ; preds = %30, %20
  %39 = load i32, ptr %9, align 4
  %40 = icmp eq i32 %39, 1
  br i1 %40, label %41, label %45

41:                                               ; preds = %38
  %42 = load ptr, ptr %13, align 8
  %43 = getelementptr inbounds ptr, ptr %42, i64 3
  %44 = load ptr, ptr %43, align 8
  call void %44(ptr noundef nonnull align 8 dereferenceable(16) %13) #11
  br label %45

45:                                               ; preds = %41, %38
  ret void
}

; Function Attrs: mustprogress nounwind uwtable
define linkonce_odr hidden void @_ZNSt16_Sp_counted_baseILN9__gnu_cxx12_Lock_policyE2EE24_M_release_last_use_coldEv(ptr noundef nonnull align 8 dereferenceable(16) %0) #0 comdat align 2 {
  %2 = alloca ptr, align 8
  store ptr %0, ptr %2, align 8
  %3 = load ptr, ptr %2, align 8
  call void @_ZNSt16_Sp_counted_baseILN9__gnu_cxx12_Lock_policyE2EE19_M_release_last_useEv(ptr noundef nonnull align 8 dereferenceable(16) %3) #11
  ret void
}

; Function Attrs: mustprogress nounwind uwtable
define linkonce_odr hidden void @_ZNSt16_Sp_counted_baseILN9__gnu_cxx12_Lock_policyE2EE10_M_releaseEv(ptr noundef nonnull align 8 dereferenceable(16) %0) #0 comdat align 2 {
  %2 = alloca ptr, align 8
  %3 = alloca i32, align 4
  %4 = alloca i32, align 4
  %5 = alloca i32, align 4
  %6 = alloca ptr, align 8
  %7 = alloca i32, align 4
  %8 = alloca i32, align 4
  %9 = alloca i32, align 4
  %10 = alloca ptr, align 8
  %11 = alloca i32, align 4
  %12 = alloca ptr, align 8
  %13 = alloca i8, align 1
  %14 = alloca i8, align 1
  %15 = alloca i8, align 1
  %16 = alloca i32, align 4
  %17 = alloca i32, align 4
  %18 = alloca i64, align 8
  %19 = alloca ptr, align 8
  %20 = alloca i64, align 8
  store ptr %0, ptr %12, align 8
  %21 = load ptr, ptr %12, align 8
  store i8 1, ptr %13, align 1
  store i8 1, ptr %14, align 1
  store i8 1, ptr %15, align 1
  store i32 32, ptr %16, align 4
  store i32 32, ptr %17, align 4
  store i64 4294967297, ptr %18, align 8
  %22 = getelementptr inbounds nuw %"class.std::_Sp_counted_base", ptr %21, i32 0, i32 1
  store ptr %22, ptr %19, align 8
  %23 = load ptr, ptr %19, align 8
  %24 = load atomic i64, ptr %23 acquire, align 8
  store i64 %24, ptr %20, align 8
  %25 = load i64, ptr %20, align 8
  %26 = icmp eq i64 %25, 4294967297
  br i1 %26, label %27, label %36

27:                                               ; preds = %1
  %28 = getelementptr inbounds nuw %"class.std::_Sp_counted_base", ptr %21, i32 0, i32 1
  store i32 0, ptr %28, align 8
  %29 = getelementptr inbounds nuw %"class.std::_Sp_counted_base", ptr %21, i32 0, i32 2
  store i32 0, ptr %29, align 4
  %30 = load ptr, ptr %21, align 8
  %31 = getelementptr inbounds ptr, ptr %30, i64 2
  %32 = load ptr, ptr %31, align 8
  call void %32(ptr noundef nonnull align 8 dereferenceable(16) %21) #11
  %33 = load ptr, ptr %21, align 8
  %34 = getelementptr inbounds ptr, ptr %33, i64 3
  %35 = load ptr, ptr %34, align 8
  call void %35(ptr noundef nonnull align 8 dereferenceable(16) %21) #11
  br label %62

36:                                               ; preds = %1
  %37 = getelementptr inbounds nuw %"class.std::_Sp_counted_base", ptr %21, i32 0, i32 1
  store ptr %37, ptr %10, align 8
  store i32 -1, ptr %11, align 4
  %38 = load i8, ptr @__libc_single_threaded, align 1
  %39 = icmp ne i8 %38, 0
  br i1 %39, label %40, label %50

40:                                               ; preds = %36
  %41 = load ptr, ptr %10, align 8
  %42 = load i32, ptr %11, align 4
  store ptr %41, ptr %6, align 8
  store i32 %42, ptr %7, align 4
  %43 = load ptr, ptr %6, align 8
  %44 = load i32, ptr %43, align 4
  store i32 %44, ptr %8, align 4
  %45 = load i32, ptr %7, align 4
  %46 = load ptr, ptr %6, align 8
  %47 = load i32, ptr %46, align 4
  %48 = add nsw i32 %47, %45
  store i32 %48, ptr %46, align 4
  %49 = load i32, ptr %8, align 4
  store i32 %49, ptr %9, align 4
  br label %58

50:                                               ; preds = %36
  %51 = load ptr, ptr %10, align 8
  %52 = load i32, ptr %11, align 4
  store ptr %51, ptr %2, align 8
  store i32 %52, ptr %3, align 4
  %53 = load ptr, ptr %2, align 8
  %54 = load i32, ptr %3, align 4
  store i32 %54, ptr %4, align 4
  %55 = load i32, ptr %4, align 4
  %56 = atomicrmw volatile add ptr %53, i32 %55 acq_rel, align 4
  store i32 %56, ptr %5, align 4
  %57 = load i32, ptr %5, align 4
  store i32 %57, ptr %9, align 4
  br label %58

58:                                               ; preds = %50, %40
  %59 = load i32, ptr %9, align 4
  %60 = icmp eq i32 %59, 1
  br i1 %60, label %61, label %62

61:                                               ; preds = %58
  call void @_ZNSt16_Sp_counted_baseILN9__gnu_cxx12_Lock_policyE2EE24_M_release_last_use_coldEv(ptr noundef nonnull align 8 dereferenceable(16) %21) #11
  br label %62

62:                                               ; preds = %61, %58, %27
  ret void
}

; Function Attrs: mustprogress nounwind uwtable
define linkonce_odr hidden void @_ZNSt14__shared_countILN9__gnu_cxx12_Lock_policyE2EED2Ev(ptr noundef nonnull align 8 dereferenceable(8) %0) unnamed_addr #0 comdat align 2 {
  %2 = alloca ptr, align 8
  store ptr %0, ptr %2, align 8
  %3 = load ptr, ptr %2, align 8
  %4 = getelementptr inbounds nuw %"class.std::__shared_count", ptr %3, i32 0, i32 0
  %5 = load ptr, ptr %4, align 8
  %6 = icmp ne ptr %5, null
  br i1 %6, label %7, label %10

7:                                                ; preds = %1
  %8 = getelementptr inbounds nuw %"class.std::__shared_count", ptr %3, i32 0, i32 0
  %9 = load ptr, ptr %8, align 8
  call void @_ZNSt16_Sp_counted_baseILN9__gnu_cxx12_Lock_policyE2EE10_M_releaseEv(ptr noundef nonnull align 8 dereferenceable(16) %9) #11
  br label %10

10:                                               ; preds = %7, %1
  ret void
}

; Function Attrs: mustprogress nounwind uwtable
define linkonce_odr hidden void @_ZNSt12__shared_ptrIN5clang6interp7InitMapELN9__gnu_cxx12_Lock_policyE2EED2Ev(ptr noundef nonnull align 8 dereferenceable(16) %0) unnamed_addr #0 comdat align 2 {
  %2 = alloca ptr, align 8
  store ptr %0, ptr %2, align 8
  %3 = load ptr, ptr %2, align 8
  %4 = getelementptr inbounds nuw %"class.std::__shared_ptr", ptr %3, i32 0, i32 1
  call void @_ZNSt14__shared_countILN9__gnu_cxx12_Lock_policyE2EED2Ev(ptr noundef nonnull align 8 dereferenceable(8) %4) #11
  ret void
}

; Function Attrs: mustprogress nounwind uwtable
define linkonce_odr hidden void @_ZNSt10shared_ptrIN5clang6interp7InitMapEED2Ev(ptr noundef nonnull align 8 dereferenceable(16) %0) unnamed_addr #0 comdat align 2 {
  %2 = alloca ptr, align 8
  store ptr %0, ptr %2, align 8
  %3 = load ptr, ptr %2, align 8
  call void @_ZNSt12__shared_ptrIN5clang6interp7InitMapELN9__gnu_cxx12_Lock_policyE2EED2Ev(ptr noundef nonnull align 8 dereferenceable(16) %3) #11
  ret void
}

; Function Attrs: mustprogress nounwind uwtable
define linkonce_odr hidden void @_ZNSt4pairIbSt10shared_ptrIN5clang6interp7InitMapEEED2Ev(ptr noundef nonnull align 8 dereferenceable(24) %0) unnamed_addr #0 comdat align 2 {
  %2 = alloca ptr, align 8
  store ptr %0, ptr %2, align 8
  %3 = load ptr, ptr %2, align 8
  %4 = getelementptr inbounds nuw %"struct.std::pair", ptr %3, i32 0, i32 1
  call void @_ZNSt10shared_ptrIN5clang6interp7InitMapEED2Ev(ptr noundef nonnull align 8 dereferenceable(16) %4) #11
  ret void
}

; Function Attrs: mustprogress nounwind uwtable
define linkonce_odr hidden void @_ZNSt22_Optional_payload_baseISt4pairIbSt10shared_ptrIN5clang6interp7InitMapEEEE10_M_destroyEv(ptr noundef nonnull align 8 dereferenceable(25) %0) #0 comdat align 2 {
  %2 = alloca ptr, align 8
  store ptr %0, ptr %2, align 8
  %3 = load ptr, ptr %2, align 8
  %4 = getelementptr inbounds nuw %"struct.std::_Optional_payload_base.51", ptr %3, i32 0, i32 1
  store i8 0, ptr %4, align 8
  %5 = getelementptr inbounds nuw %"struct.std::_Optional_payload_base.51", ptr %3, i32 0, i32 0
  call void @_ZNSt4pairIbSt10shared_ptrIN5clang6interp7InitMapEEED2Ev(ptr noundef nonnull align 8 dereferenceable(24) %5) #11
  ret void
}

; Function Attrs: mustprogress nounwind uwtable
define linkonce_odr hidden void @_ZNSt22_Optional_payload_baseISt4pairIbSt10shared_ptrIN5clang6interp7InitMapEEEE8_M_resetEv(ptr noundef nonnull align 8 dereferenceable(25) %0) #0 comdat align 2 {
  %2 = alloca ptr, align 8
  store ptr %0, ptr %2, align 8
  %3 = load ptr, ptr %2, align 8
  %4 = getelementptr inbounds nuw %"struct.std::_Optional_payload_base.51", ptr %3, i32 0, i32 1
  %5 = load i8, ptr %4, align 8
  %6 = trunc i8 %5 to i1
  br i1 %6, label %7, label %8

7:                                                ; preds = %1
  call void @_ZNSt22_Optional_payload_baseISt4pairIbSt10shared_ptrIN5clang6interp7InitMapEEEE10_M_destroyEv(ptr noundef nonnull align 8 dereferenceable(25) %3) #11
  br label %8

8:                                                ; preds = %7, %1
  ret void
}

; Function Attrs: mustprogress nounwind uwtable
define linkonce_odr hidden noundef i32 @_ZNK5clang6interp10Descriptor11getElemSizeEv(ptr noundef nonnull align 8 dereferenceable(80) %0) #0 comdat align 2 {
  %2 = alloca ptr, align 8
  store ptr %0, ptr %2, align 8
  %3 = load ptr, ptr %2, align 8
  %4 = getelementptr inbounds nuw %"struct.clang::interp::Descriptor", ptr %3, i32 0, i32 1
  %5 = load i32, ptr %4, align 8
  ret i32 %5
}

; Function Attrs: mustprogress nounwind uwtable
define linkonce_odr hidden noundef i32 @_ZNK5clang6interp10Descriptor7getSizeEv(ptr noundef nonnull align 8 dereferenceable(80) %0) #0 comdat align 2 {
  %2 = alloca ptr, align 8
  store ptr %0, ptr %2, align 8
  %3 = load ptr, ptr %2, align 8
  %4 = getelementptr inbounds nuw %"struct.clang::interp::Descriptor", ptr %3, i32 0, i32 2
  %5 = load i32, ptr %4, align 4
  ret i32 %5
}

; Function Attrs: mustprogress nounwind uwtable
define linkonce_odr hidden void @_ZNSt19_Optional_base_implISt4pairIbSt10shared_ptrIN5clang6interp7InitMapEEESt14_Optional_baseIS6_Lb0ELb0EEE8_M_resetEv(ptr noundef nonnull align 1 dereferenceable(1) %0) #0 comdat align 2 {
  %2 = alloca ptr, align 8
  store ptr %0, ptr %2, align 8
  %3 = load ptr, ptr %2, align 8
  %4 = getelementptr inbounds nuw %"struct.std::_Optional_base.47", ptr %3, i32 0, i32 0
  call void @_ZNSt22_Optional_payload_baseISt4pairIbSt10shared_ptrIN5clang6interp7InitMapEEEE8_M_resetEv(ptr noundef nonnull align 8 dereferenceable(25) %4) #11
  ret void
}

; Function Attrs: mustprogress nounwind uwtable
define linkonce_odr hidden noundef zeroext i1 @_ZNKSt19_Optional_base_implISt4pairIbSt10shared_ptrIN5clang6interp7InitMapEEESt14_Optional_baseIS6_Lb0ELb0EEE13_M_is_engagedEv(ptr noundef nonnull align 1 dereferenceable(1) %0) #0 comdat align 2 {
  %2 = alloca ptr, align 8
  store ptr %0, ptr %2, align 8
  %3 = load ptr, ptr %2, align 8
  %4 = getelementptr inbounds nuw %"struct.std::_Optional_base.47", ptr %3, i32 0, i32 0
  %5 = getelementptr inbounds nuw %"struct.std::_Optional_payload_base.51", ptr %4, i32 0, i32 1
  %6 = load i8, ptr %5, align 8
  %7 = trunc i8 %6 to i1
  ret i1 %7
}

; Function Attrs: mustprogress nounwind uwtable
define linkonce_odr hidden void @_ZN5clang6interp13MemberPointerD2Ev(ptr noundef nonnull align 8 dereferenceable(72) %0) unnamed_addr #0 comdat align 2 {
  %2 = alloca ptr, align 8
  store ptr %0, ptr %2, align 8
  %3 = load ptr, ptr %2, align 8
  %4 = getelementptr inbounds nuw %"class.clang::interp::MemberPointer", ptr %3, i32 0, i32 0
  call void @_ZN5clang6interp7PointerD1Ev(ptr noundef nonnull align 8 dereferenceable(52) %4) #11
  ret void
}

; Function Attrs: mustprogress nounwind uwtable
define linkonce_odr hidden noundef i32 @_ZNK5clang6interp10Descriptor11getNumElemsEv(ptr noundef nonnull align 8 dereferenceable(80) %0) #0 comdat align 2 {
  %2 = alloca ptr, align 8
  store ptr %0, ptr %2, align 8
  %3 = load ptr, ptr %2, align 8
  %4 = getelementptr inbounds nuw %"struct.clang::interp::Descriptor", ptr %3, i32 0, i32 2
  %5 = load i32, ptr %4, align 4
  %6 = icmp eq i32 %5, -1
  br i1 %6, label %7, label %8

7:                                                ; preds = %1
  br label %12

8:                                                ; preds = %1
  %9 = call noundef i32 @_ZNK5clang6interp10Descriptor7getSizeEv(ptr noundef nonnull align 8 dereferenceable(80) %3)
  %10 = call noundef i32 @_ZNK5clang6interp10Descriptor11getElemSizeEv(ptr noundef nonnull align 8 dereferenceable(80) %3)
  %11 = udiv i32 %9, %10
  br label %12

12:                                               ; preds = %8, %7
  %13 = phi i32 [ 0, %7 ], [ %11, %8 ]
  ret i32 %13
}

; Function Attrs: mustprogress nounwind uwtable
define linkonce_odr hidden noundef nonnull align 8 dereferenceable(32) ptr @_ZNSt8optionalISt4pairIbSt10shared_ptrIN5clang6interp7InitMapEEEEaSESt9nullopt_t(ptr noundef nonnull align 8 dereferenceable(32) %0) #0 comdat align 2 {
  %2 = alloca ptr, align 8
  store ptr %0, ptr %2, align 8
  %3 = load ptr, ptr %2, align 8
  call void @_ZNSt19_Optional_base_implISt4pairIbSt10shared_ptrIN5clang6interp7InitMapEEESt14_Optional_baseIS6_Lb0ELb0EEE8_M_resetEv(ptr noundef nonnull align 1 dereferenceable(1) %3) #11
  ret ptr %3
}

; Function Attrs: mustprogress nounwind uwtable
define linkonce_odr hidden noundef zeroext i1 @_ZNKSt8optionalISt4pairIbSt10shared_ptrIN5clang6interp7InitMapEEEEcvbEv(ptr noundef nonnull align 8 dereferenceable(32) %0) #0 comdat align 2 {
  %2 = alloca ptr, align 8
  store ptr %0, ptr %2, align 8
  %3 = load ptr, ptr %2, align 8
  %4 = call noundef zeroext i1 @_ZNKSt19_Optional_base_implISt4pairIbSt10shared_ptrIN5clang6interp7InitMapEEESt14_Optional_baseIS6_Lb0ELb0EEE13_M_is_engagedEv(ptr noundef nonnull align 1 dereferenceable(1) %3) #11
  ret i1 %4
}

; Function Attrs: mustprogress nounwind uwtable
define internal void @_ZL11dtorArrayTyIN5clang6interp13MemberPointerEEvPNS1_5BlockEPSt4bytePKNS1_10DescriptorE(ptr noundef %0, ptr noundef %1, ptr noundef %2) #0 {
  %4 = alloca ptr, align 8
  %5 = alloca ptr, align 8
  %6 = alloca ptr, align 8
  %7 = alloca ptr, align 8
  %8 = alloca i32, align 4
  %9 = alloca i32, align 4
  store ptr %0, ptr %4, align 8
  store ptr %1, ptr %5, align 8
  store ptr %2, ptr %6, align 8
  %10 = load ptr, ptr %5, align 8
  store ptr %10, ptr %7, align 8
  %11 = load ptr, ptr %7, align 8
  %12 = call noundef zeroext i1 @_ZNKSt8optionalISt4pairIbSt10shared_ptrIN5clang6interp7InitMapEEEEcvbEv(ptr noundef nonnull align 8 dereferenceable(32) %11) #11
  br i1 %12, label %13, label %16

13:                                               ; preds = %3
  %14 = load ptr, ptr %7, align 8
  %15 = call noundef nonnull align 8 dereferenceable(32) ptr @_ZNSt8optionalISt4pairIbSt10shared_ptrIN5clang6interp7InitMapEEEEaSESt9nullopt_t(ptr noundef nonnull align 8 dereferenceable(32) %14) #11
  br label %16

16:                                               ; preds = %13, %3
  %17 = load ptr, ptr %5, align 8
  %18 = getelementptr inbounds i8, ptr %17, i64 32
  store ptr %18, ptr %5, align 8
  store i32 0, ptr %8, align 4
  %19 = load ptr, ptr %6, align 8
  %20 = call noundef i32 @_ZNK5clang6interp10Descriptor11getNumElemsEv(ptr noundef nonnull align 8 dereferenceable(80) %19)
  store i32 %20, ptr %9, align 4
  br label %21

21:                                               ; preds = %30, %16
  %22 = load i32, ptr %8, align 4
  %23 = load i32, ptr %9, align 4
  %24 = icmp ult i32 %22, %23
  br i1 %24, label %25, label %33

25:                                               ; preds = %21
  %26 = load ptr, ptr %5, align 8
  %27 = load i32, ptr %8, align 4
  %28 = zext i32 %27 to i64
  %29 = getelementptr inbounds %"class.clang::interp::MemberPointer", ptr %26, i64 %28
  call void @_ZN5clang6interp13MemberPointerD2Ev(ptr noundef nonnull align 8 dereferenceable(72) %29) #11
  br label %30

30:                                               ; preds = %25
  %31 = load i32, ptr %8, align 4
  %32 = add i32 %31, 1
  store i32 %32, ptr %8, align 4
  br label %21, !llvm.loop !37

33:                                               ; preds = %21
  ret void
}